target datalayout = "e-m:e-p270:32:32-p271:32:32-p272:64:64-i64:64-i128:128-f80:128-n8:16:32:64-S128"
target triple = "x86_64-pc-linux-gnu"

%struct._e_guid_t = type { i32, i16, i16, [8 x i8] }
%struct._address = type { i32, i32, ptr, ptr }
%struct.nstime_t = type { i64, i32 }
%struct._packet_info = type { ptr, ptr, i32, i32, %struct.nstime_t, %struct.nstime_t, %struct.nstime_t, i8, ptr, ptr, ptr, ptr, %struct._address, %struct._address, %struct._address, %struct._address, %struct._address, %struct._address, i32, ptr, i8, [3 x i8], %struct.anon.0, i32, i32, i32, i32, ptr, i8, ptr, ptr, i16, i16, i32, i32, i16, i32, i32, ptr, ptr, ptr, i8, i8, i16, i16, i16, i32, i16, i16, ptr, ptr, ptr, ptr, ptr, i32, i32 }
%struct.anon.0 = type { i8, [3 x i8] }
%struct._e_dce_dg_common_hdr_t = type { i8, i8, i8, i8, [3 x i8], i8, %struct._e_guid_t, %struct._e_guid_t, %struct._e_guid_t, i32, i32, i32, i16, i16, i16, i16, i16, i8, i8 }

@hf_dcerpc_dg_status = internal global i32 0, align 4
@.str.683 = private unnamed_addr constant [17 x i8] c"Unknown (0x%08x)\00", align 1
@.str.725 = private unnamed_addr constant [13 x i8] c": status: %s\00", align 1

; Function Attrs: null_pointer_is_valid sspstrong uwtable
define i32 @dissect_dcerpc_uint32(ptr noundef %0, i32 noundef %1, ptr noundef %2, ptr noundef %3, ptr noundef %4, i32 noundef %5, ptr noundef %6) #0 {
  %8 = alloca ptr, align 8
  %9 = alloca i32, align 4
  %10 = alloca ptr, align 8
  %11 = alloca ptr, align 8
  %12 = alloca ptr, align 8
  %13 = alloca i32, align 4
  %14 = alloca ptr, align 8
  %15 = alloca i32, align 4
  store ptr %0, ptr %8, align 8
  store i32 %1, ptr %9, align 4
  store ptr %2, ptr %10, align 8
  store ptr %3, ptr %11, align 8
  store ptr %4, ptr %12, align 8
  store i32 %5, ptr %13, align 4
  store ptr %6, ptr %14, align 8
  call void @llvm.lifetime.start.p0(i64 4, ptr %15) #19
  %16 = load ptr, ptr %12, align 8
  %17 = getelementptr i8, ptr %16, i64 0
  %18 = load i8, ptr %17, align 1
  %19 = zext i8 %18 to i32
  %20 = and i32 %19, 16
  %21 = icmp ne i32 %20, 0
  br i1 %21, label %22, label %26

22:                                               ; preds = %7
  %23 = load ptr, ptr %8, align 8
  %24 = load i32, ptr %9, align 4
  %25 = call i32 @tvb_get_letohl(ptr noundef %23, i32 noundef %24)
  br label %30

26:                                               ; preds = %7
  %27 = load ptr, ptr %8, align 8
  %28 = load i32, ptr %9, align 4
  %29 = call i32 @tvb_get_ntohl(ptr noundef %27, i32 noundef %28)
  br label %30

30:                                               ; preds = %26, %22
  %31 = phi i32 [ %25, %22 ], [ %29, %26 ]
  store i32 %31, ptr %15, align 4
  %32 = load i32, ptr %13, align 4
  %33 = icmp ne i32 %32, -1
  br i1 %33, label %34, label %47

34:                                               ; preds = %30
  %35 = load ptr, ptr %11, align 8
  %36 = load i32, ptr %13, align 4
  %37 = load ptr, ptr %8, align 8
  %38 = load i32, ptr %9, align 4
  %39 = load ptr, ptr %12, align 8
  %40 = getelementptr i8, ptr %39, i64 0
  %41 = load i8, ptr %40, align 1
  %42 = zext i8 %41 to i32
  %43 = and i32 %42, 16
  %44 = icmp ne i32 %43, 0
  %45 = select i1 %44, i32 -2147483648, i32 0
  %46 = call ptr @proto_tree_add_item(ptr noundef %35, i32 noundef %36, ptr noundef %37, i32 noundef %38, i32 noundef 4, i32 noundef %45)
  br label %47

47:                                               ; preds = %34, %30
  %48 = load ptr, ptr %14, align 8
  %49 = icmp ne ptr %48, null
  br i1 %49, label %50, label %53

50:                                               ; preds = %47
  %51 = load i32, ptr %15, align 4
  %52 = load ptr, ptr %14, align 8
  store i32 %51, ptr %52, align 4
  br label %53

53:                                               ; preds = %50, %47
  %54 = load ptr, ptr %8, align 8
  %55 = load i32, ptr %9, align 4
  call void @tvb_ensure_bytes_exist(ptr noundef %54, i32 noundef %55, i32 noundef 4)
  %56 = load i32, ptr %9, align 4
  %57 = add i32 %56, 4
  call void @llvm.lifetime.end.p0(i64 4, ptr %15) #19
  ret i32 %57
}

; Function Attrs: null_pointer_is_valid sspstrong uwtable
define internal void @dissect_dcerpc_dg_reject_fault(ptr noundef %0, i32 noundef %1, ptr noundef %2, ptr noundef %3, ptr noundef %4) #0 {
  %6 = alloca ptr, align 8
  %7 = alloca i32, align 4
  %8 = alloca ptr, align 8
  %9 = alloca ptr, align 8
  %10 = alloca ptr, align 8
  %11 = alloca i32, align 4
  store ptr %0, ptr %6, align 8
  store i32 %1, ptr %7, align 4
  store ptr %2, ptr %8, align 8
  store ptr %3, ptr %9, align 8
  store ptr %4, ptr %10, align 8
  call void @llvm.lifetime.start.p0(i64 4, ptr %11) #19
  %12 = load ptr, ptr %6, align 8
  %13 = load i32, ptr %7, align 4
  %14 = load ptr, ptr %8, align 8
  %15 = load ptr, ptr %9, align 8
  %16 = load ptr, ptr %10, align 8
  %17 = getelementptr inbounds nuw %struct._e_dce_dg_common_hdr_t, ptr %16, i32 0, i32 4
  %18 = getelementptr inbounds [3 x i8], ptr %17, i64 0, i64 0
  %19 = load i32, ptr @hf_dcerpc_dg_status, align 4
  %20 = call i32 @dissect_dcerpc_uint32(ptr noundef %12, i32 noundef %13, ptr noundef %14, ptr noundef %15, ptr noundef %18, i32 noundef %19, ptr noundef %11)
  %21 = load ptr, ptr %8, align 8
  %22 = getelementptr inbounds nuw %struct._packet_info, ptr %21, i32 0, i32 1
  %23 = load ptr, ptr %22, align 8
  %24 = load i32, ptr %11, align 4
  %25 = call ptr @val_to_str(i32 noundef %24, ptr noundef @reject_status_vals, ptr noundef @.str.683)
  call void (ptr, i32, ptr, ...) @col_append_fstr(ptr noundef %23, i32 noundef 25, ptr noundef @.str.725, ptr noundef %25)
  call void @llvm.lifetime.end.p0(i64 4, ptr %11) #19
  ret void
}