; Function Attrs: null_pointer_is_valid sspstrong uwtable
define internal fastcc void @dissect_dcerpc_dg_reject_fault(ptr noundef %0, ptr noundef readonly captures(none) %1, ptr noundef %2, ptr noundef readonly captures(none) %3) unnamed_addr #0 {
  %5 = getelementptr inbounds nuw i8, ptr %3, i64 4
  %6 = load i32, ptr @hf_dcerpc_dg_status, align 4
  %7 = load i8, ptr %5, align 1
  %8 = and i8 %7, 16
  %.not.i = icmp eq i8 %8, 0
  br i1 %.not.i, label %11, label %9

9:                                                ; preds = %4
  %10 = tail call i32 @tvb_get_letohl(ptr noundef %0, i32 noundef 80)
  br label %13

11:                                               ; preds = %4
  %12 = tail call i32 @tvb_get_ntohl(ptr noundef %0, i32 noundef 80)
  br label %13

13:                                               ; preds = %11, %9
  %14 = phi i32 [ %10, %9 ], [ %12, %11 ]
  %.not17.i = icmp eq i32 %6, -1
  br i1 %.not17.i, label %dissect_dcerpc_uint32.exit, label %15

15:                                               ; preds = %13
  %16 = load i8, ptr %5, align 1
  %17 = and i8 %16, 16
  %18 = zext nneg i8 %17 to i32
  %19 = shl nuw i32 %18, 27
  %20 = tail call ptr @proto_tree_add_item(ptr noundef %2, i32 noundef %6, ptr noundef %0, i32 noundef 80, i32 noundef 4, i32 noundef %19)
  br label %dissect_dcerpc_uint32.exit

dissect_dcerpc_uint32.exit:                       ; preds = %13, %15
  tail call void @tvb_ensure_bytes_exist(ptr noundef %0, i32 noundef 80, i32 noundef 4)
  %21 = getelementptr inbounds nuw i8, ptr %1, i64 8
  %22 = load ptr, ptr %21, align 8
  %23 = tail call ptr @val_to_str(i32 noundef %14, ptr noundef nonnull @reject_status_vals, ptr noundef nonnull @.str.683)
  tail call void (ptr, i32, ptr, ...) @col_append_fstr(ptr noundef %22, i32 noundef 25, ptr noundef nonnull @.str.725, ptr noundef %23)
  ret void
}